; ModuleID = '20/302.c'
source_filename = "20/302.c"
target datalayout = "e-m:e-p270:32:32-p271:32:32-p272:64:64-i64:64-f80:128-n8:16:32:64-S128"
target triple = "x86_64-pc-linux-gnu"

@.str = private unnamed_addr constant [6 x i8] c"%s %s\00", align 1
@.str.1 = private unnamed_addr constant [4 x i8] c"%s\0A\00", align 1

; Function Attrs: noinline nounwind uwtable
define dso_local void @main() #0 {
  %1 = alloca [20 x i8], align 16
  %2 = alloca [3 x i8], align 1
  %3 = alloca [20 x i8], align 16
  %4 = alloca i32, align 4
  %5 = alloca i32, align 4
  %6 = alloca i32, align 4
  %7 = alloca i32, align 4
  store i32 0, i32* %5, align 4
  br label %8

8:                                                ; preds = %79, %0
  %9 = getelementptr inbounds [20 x i8], [20 x i8]* %1, i64 0, i64 0
  %10 = getelementptr inbounds [3 x i8], [3 x i8]* %2, i64 0, i64 0
  %11 = call i32 (i8*, ...) @__isoc99_scanf(i8* getelementptr inbounds ([6 x i8], [6 x i8]* @.str, i64 0, i64 0), i8* %9, i8* %10)
  %12 = icmp eq i32 %11, 2
  br i1 %12, label %13, label %86

13:                                               ; preds = %8
  %14 = getelementptr inbounds [20 x i8], [20 x i8]* %1, i64 0, i64 0
  %15 = call i64 @strlen(i8* %14) #3
  %16 = trunc i64 %15 to i32
  store i32 %16, i32* %7, align 4
  store i32 0, i32* %4, align 4
  br label %17

17:                                               ; preds = %36, %13
  %18 = load i32, i32* %4, align 4
  %19 = load i32, i32* %7, align 4
  %20 = icmp slt i32 %18, %19
  br i1 %20, label %21, label %39

21:                                               ; preds = %17
  %22 = load i32, i32* %4, align 4
  %23 = sext i32 %22 to i64
  %24 = getelementptr inbounds [20 x i8], [20 x i8]* %1, i64 0, i64 %23
  %25 = load i8, i8* %24, align 1
  %26 = sext i8 %25 to i32
  %27 = load i32, i32* %5, align 4
  %28 = sext i32 %27 to i64
  %29 = getelementptr inbounds [20 x i8], [20 x i8]* %1, i64 0, i64 %28
  %30 = load i8, i8* %29, align 1
  %31 = sext i8 %30 to i32
  %32 = icmp sgt i32 %26, %31
  br i1 %32, label %33, label %35

33:                                               ; preds = %21
  %34 = load i32, i32* %4, align 4
  store i32 %34, i32* %5, align 4
  br label %35

35:                                               ; preds = %33, %21
  br label %36

36:                                               ; preds = %35
  %37 = load i32, i32* %4, align 4
  %38 = add nsw i32 %37, 1
  store i32 %38, i32* %4, align 4
  br label %17

39:                                               ; preds = %17
  %40 = load i32, i32* %7, align 4
  %41 = sub nsw i32 %40, 1
  store i32 %41, i32* %4, align 4
  br label %42

42:                                               ; preds = %55, %39
  %43 = load i32, i32* %4, align 4
  %44 = load i32, i32* %5, align 4
  %45 = icmp sgt i32 %43, %44
  br i1 %45, label %46, label %58

46:                                               ; preds = %42
  %47 = load i32, i32* %4, align 4
  %48 = sext i32 %47 to i64
  %49 = getelementptr inbounds [20 x i8], [20 x i8]* %1, i64 0, i64 %48
  %50 = load i8, i8* %49, align 1
  %51 = load i32, i32* %4, align 4
  %52 = add nsw i32 %51, 3
  %53 = sext i32 %52 to i64
  %54 = getelementptr inbounds [20 x i8], [20 x i8]* %1, i64 0, i64 %53
  store i8 %50, i8* %54, align 1
  br label %55

55:                                               ; preds = %46
  %56 = load i32, i32* %4, align 4
  %57 = add nsw i32 %56, -1
  store i32 %57, i32* %4, align 4
  br label %42

58:                                               ; preds = %42
  %59 = load i32, i32* %5, align 4
  %60 = add nsw i32 %59, 1
  store i32 %60, i32* %4, align 4
  store i32 0, i32* %6, align 4
  br label %61

61:                                               ; preds = %74, %58
  %62 = load i32, i32* %4, align 4
  %63 = load i32, i32* %5, align 4
  %64 = add nsw i32 %63, 4
  %65 = icmp slt i32 %62, %64
  br i1 %65, label %66, label %79

66:                                               ; preds = %61
  %67 = load i32, i32* %6, align 4
  %68 = sext i32 %67 to i64
  %69 = getelementptr inbounds [3 x i8], [3 x i8]* %2, i64 0, i64 %68
  %70 = load i8, i8* %69, align 1
  %71 = load i32, i32* %4, align 4
  %72 = sext i32 %71 to i64
  %73 = getelementptr inbounds [20 x i8], [20 x i8]* %1, i64 0, i64 %72
  store i8 %70, i8* %73, align 1
  br label %74

74:                                               ; preds = %66
  %75 = load i32, i32* %4, align 4
  %76 = add nsw i32 %75, 1
  store i32 %76, i32* %4, align 4
  %77 = load i32, i32* %6, align 4
  %78 = add nsw i32 %77, 1
  store i32 %78, i32* %6, align 4
  br label %61

79:                                               ; preds = %61
  %80 = load i32, i32* %7, align 4
  %81 = add nsw i32 %80, 3
  %82 = sext i32 %81 to i64
  %83 = getelementptr inbounds [20 x i8], [20 x i8]* %1, i64 0, i64 %82
  store i8 0, i8* %83, align 1
  %84 = getelementptr inbounds [20 x i8], [20 x i8]* %1, i64 0, i64 0
  %85 = call i32 (i8*, ...) @printf(i8* getelementptr inbounds ([4 x i8], [4 x i8]* @.str.1, i64 0, i64 0), i8* %84)
  br label %8

86:                                               ; preds = %8
  ret void
}

declare dso_local i32 @__isoc99_scanf(i8*, ...) #1

; Function Attrs: nounwind readonly
declare dso_local i64 @strlen(i8*) #2

declare dso_local i32 @printf(i8*, ...) #1


!llvm.module.flags = !{!0}
!llvm.ident = !{!1}

!0 = !{i32 1, !"wchar_size", i32 4}
!1 = !{!"clang version 10.0.0-4ubuntu1 "}
